; ModuleID = '31/1410.c'
source_filename = "31/1410.c"
target datalayout = "e-m:e-p270:32:32-p271:32:32-p272:64:64-i64:64-f80:128-n8:16:32:64-S128"
target triple = "x86_64-pc-linux-gnu"

%struct.stu = type { [111 x i8], [111 x i8], i8, i32, [11111 x i8], [111 x i8], %struct.stu* }

@n = common dso_local global i32 0, align 4
@.str = private unnamed_addr constant [3 x i8] c"%s\00", align 1
@.str.1 = private unnamed_addr constant [4 x i8] c"end\00", align 1
@.str.2 = private unnamed_addr constant [15 x i8] c"%s %c %d %s %s\00", align 1
@.str.3 = private unnamed_addr constant [19 x i8] c"%s %s %c %d %s %s\0A\00", align 1

; Function Attrs: noinline nounwind uwtable
define dso_local %struct.stu* @creat() #0 {
  %1 = alloca %struct.stu*, align 8
  %2 = alloca %struct.stu*, align 8
  %3 = alloca %struct.stu*, align 8
  %4 = alloca %struct.stu*, align 8
  store i32 0, i32* @n, align 4
  %5 = call noalias i8* @malloc(i64 100) #4
  %6 = bitcast i8* %5 to %struct.stu*
  store %struct.stu* %6, %struct.stu** %3, align 8
  %7 = load %struct.stu*, %struct.stu** %3, align 8
  %8 = getelementptr inbounds %struct.stu, %struct.stu* %7, i32 0, i32 0
  %9 = getelementptr inbounds [111 x i8], [111 x i8]* %8, i64 0, i64 0
  %10 = call i32 (i8*, ...) @__isoc99_scanf(i8* getelementptr inbounds ([3 x i8], [3 x i8]* @.str, i64 0, i64 0), i8* %9)
  %11 = load %struct.stu*, %struct.stu** %3, align 8
  %12 = getelementptr inbounds %struct.stu, %struct.stu* %11, i32 0, i32 0
  %13 = getelementptr inbounds [111 x i8], [111 x i8]* %12, i64 0, i64 0
  %14 = call i32 @strcmp(i8* %13, i8* getelementptr inbounds ([4 x i8], [4 x i8]* @.str.1, i64 0, i64 0)) #5
  %15 = icmp ne i32 %14, 0
  br i1 %15, label %16, label %31

16:                                               ; preds = %0
  %17 = load %struct.stu*, %struct.stu** %3, align 8
  %18 = getelementptr inbounds %struct.stu, %struct.stu* %17, i32 0, i32 1
  %19 = getelementptr inbounds [111 x i8], [111 x i8]* %18, i64 0, i64 0
  %20 = load %struct.stu*, %struct.stu** %3, align 8
  %21 = getelementptr inbounds %struct.stu, %struct.stu* %20, i32 0, i32 2
  %22 = load %struct.stu*, %struct.stu** %3, align 8
  %23 = getelementptr inbounds %struct.stu, %struct.stu* %22, i32 0, i32 3
  %24 = load %struct.stu*, %struct.stu** %3, align 8
  %25 = getelementptr inbounds %struct.stu, %struct.stu* %24, i32 0, i32 4
  %26 = getelementptr inbounds [11111 x i8], [11111 x i8]* %25, i64 0, i64 0
  %27 = load %struct.stu*, %struct.stu** %3, align 8
  %28 = getelementptr inbounds %struct.stu, %struct.stu* %27, i32 0, i32 5
  %29 = getelementptr inbounds [111 x i8], [111 x i8]* %28, i64 0, i64 0
  %30 = call i32 (i8*, ...) @__isoc99_scanf(i8* getelementptr inbounds ([15 x i8], [15 x i8]* @.str.2, i64 0, i64 0), i8* %19, i8* %21, i32* %23, i8* %26, i8* %29)
  br label %32

31:                                               ; preds = %0
  store %struct.stu* null, %struct.stu** %1, align 8
  br label %78

32:                                               ; preds = %16
  br label %33

33:                                               ; preds = %32, %74
  %34 = load i32, i32* @n, align 4
  %35 = add nsw i32 %34, 1
  store i32 %35, i32* @n, align 4
  %36 = load i32, i32* @n, align 4
  %37 = icmp eq i32 %36, 1
  br i1 %37, label %38, label %41

38:                                               ; preds = %33
  %39 = load %struct.stu*, %struct.stu** %3, align 8
  %40 = getelementptr inbounds %struct.stu, %struct.stu* %39, i32 0, i32 6
  store %struct.stu* null, %struct.stu** %40, align 8
  br label %45

41:                                               ; preds = %33
  %42 = load %struct.stu*, %struct.stu** %4, align 8
  %43 = load %struct.stu*, %struct.stu** %3, align 8
  %44 = getelementptr inbounds %struct.stu, %struct.stu* %43, i32 0, i32 6
  store %struct.stu* %42, %struct.stu** %44, align 8
  br label %45

45:                                               ; preds = %41, %38
  %46 = load %struct.stu*, %struct.stu** %3, align 8
  store %struct.stu* %46, %struct.stu** %4, align 8
  %47 = call noalias i8* @malloc(i64 100) #4
  %48 = bitcast i8* %47 to %struct.stu*
  store %struct.stu* %48, %struct.stu** %3, align 8
  %49 = load %struct.stu*, %struct.stu** %3, align 8
  %50 = getelementptr inbounds %struct.stu, %struct.stu* %49, i32 0, i32 0
  %51 = getelementptr inbounds [111 x i8], [111 x i8]* %50, i64 0, i64 0
  %52 = call i32 (i8*, ...) @__isoc99_scanf(i8* getelementptr inbounds ([3 x i8], [3 x i8]* @.str, i64 0, i64 0), i8* %51)
  %53 = load %struct.stu*, %struct.stu** %3, align 8
  %54 = getelementptr inbounds %struct.stu, %struct.stu* %53, i32 0, i32 0
  %55 = getelementptr inbounds [111 x i8], [111 x i8]* %54, i64 0, i64 0
  %56 = call i32 @strcmp(i8* %55, i8* getelementptr inbounds ([4 x i8], [4 x i8]* @.str.1, i64 0, i64 0)) #5
  %57 = icmp ne i32 %56, 0
  br i1 %57, label %58, label %73

58:                                               ; preds = %45
  %59 = load %struct.stu*, %struct.stu** %3, align 8
  %60 = getelementptr inbounds %struct.stu, %struct.stu* %59, i32 0, i32 1
  %61 = getelementptr inbounds [111 x i8], [111 x i8]* %60, i64 0, i64 0
  %62 = load %struct.stu*, %struct.stu** %3, align 8
  %63 = getelementptr inbounds %struct.stu, %struct.stu* %62, i32 0, i32 2
  %64 = load %struct.stu*, %struct.stu** %3, align 8
  %65 = getelementptr inbounds %struct.stu, %struct.stu* %64, i32 0, i32 3
  %66 = load %struct.stu*, %struct.stu** %3, align 8
  %67 = getelementptr inbounds %struct.stu, %struct.stu* %66, i32 0, i32 4
  %68 = getelementptr inbounds [11111 x i8], [11111 x i8]* %67, i64 0, i64 0
  %69 = load %struct.stu*, %struct.stu** %3, align 8
  %70 = getelementptr inbounds %struct.stu, %struct.stu* %69, i32 0, i32 5
  %71 = getelementptr inbounds [111 x i8], [111 x i8]* %70, i64 0, i64 0
  %72 = call i32 (i8*, ...) @__isoc99_scanf(i8* getelementptr inbounds ([15 x i8], [15 x i8]* @.str.2, i64 0, i64 0), i8* %61, i8* %63, i32* %65, i8* %68, i8* %71)
  br label %74

73:                                               ; preds = %45
  br label %75

74:                                               ; preds = %58
  br label %33

75:                                               ; preds = %73
  %76 = load %struct.stu*, %struct.stu** %4, align 8
  store %struct.stu* %76, %struct.stu** %2, align 8
  %77 = load %struct.stu*, %struct.stu** %2, align 8
  store %struct.stu* %77, %struct.stu** %1, align 8
  br label %78

78:                                               ; preds = %75, %31
  %79 = load %struct.stu*, %struct.stu** %1, align 8
  ret %struct.stu* %79
}

; Function Attrs: nounwind
declare dso_local noalias i8* @malloc(i64) #1

declare dso_local i32 @__isoc99_scanf(i8*, ...) #2

; Function Attrs: nounwind readonly
declare dso_local i32 @strcmp(i8*, i8*) #3

; Function Attrs: noinline nounwind uwtable
define dso_local void @main() #0 {
  %1 = alloca i32, align 4
  %2 = alloca %struct.stu*, align 8
  %3 = call %struct.stu* @creat()
  store %struct.stu* %3, %struct.stu** %2, align 8
  br label %4

4:                                                ; preds = %7, %0
  %5 = load %struct.stu*, %struct.stu** %2, align 8
  %6 = icmp ne %struct.stu* %5, null
  br i1 %6, label %7, label %31

7:                                                ; preds = %4
  %8 = load %struct.stu*, %struct.stu** %2, align 8
  %9 = getelementptr inbounds %struct.stu, %struct.stu* %8, i32 0, i32 0
  %10 = getelementptr inbounds [111 x i8], [111 x i8]* %9, i64 0, i64 0
  %11 = load %struct.stu*, %struct.stu** %2, align 8
  %12 = getelementptr inbounds %struct.stu, %struct.stu* %11, i32 0, i32 1
  %13 = getelementptr inbounds [111 x i8], [111 x i8]* %12, i64 0, i64 0
  %14 = load %struct.stu*, %struct.stu** %2, align 8
  %15 = getelementptr inbounds %struct.stu, %struct.stu* %14, i32 0, i32 2
  %16 = load i8, i8* %15, align 2
  %17 = sext i8 %16 to i32
  %18 = load %struct.stu*, %struct.stu** %2, align 8
  %19 = getelementptr inbounds %struct.stu, %struct.stu* %18, i32 0, i32 3
  %20 = load i32, i32* %19, align 8
  %21 = load %struct.stu*, %struct.stu** %2, align 8
  %22 = getelementptr inbounds %struct.stu, %struct.stu* %21, i32 0, i32 4
  %23 = getelementptr inbounds [11111 x i8], [11111 x i8]* %22, i64 0, i64 0
  %24 = load %struct.stu*, %struct.stu** %2, align 8
  %25 = getelementptr inbounds %struct.stu, %struct.stu* %24, i32 0, i32 5
  %26 = getelementptr inbounds [111 x i8], [111 x i8]* %25, i64 0, i64 0
  %27 = call i32 (i8*, ...) @printf(i8* getelementptr inbounds ([19 x i8], [19 x i8]* @.str.3, i64 0, i64 0), i8* %10, i8* %13, i32 %17, i32 %20, i8* %23, i8* %26)
  %28 = load %struct.stu*, %struct.stu** %2, align 8
  %29 = getelementptr inbounds %struct.stu, %struct.stu* %28, i32 0, i32 6
  %30 = load %struct.stu*, %struct.stu** %29, align 8
  store %struct.stu* %30, %struct.stu** %2, align 8
  br label %4

31:                                               ; preds = %4
  ret void
}

declare dso_local i32 @printf(i8*, ...) #2


!llvm.module.flags = !{!0}
!llvm.ident = !{!1}

!0 = !{i32 1, !"wchar_size", i32 4}
!1 = !{!"clang version 10.0.0-4ubuntu1 "}
